target datalayout = "e-m:e-p270:32:32-p271:32:32-p272:64:64-i64:64-i128:128-f80:128-n8:16:32:64-S128"
target triple = "x86_64-pc-linux-gnu"

%struct.FxuCube = type { i32, ptr, ptr, %struct.FxuListLit, ptr, ptr, ptr }
%struct.FxuListLit = type { ptr, ptr, i32 }
%struct.FxuPair = type { i32, i32, i32, ptr, ptr, ptr, i32, i32, ptr, ptr }
%struct.FxuVar = type { i32, i32, ptr, ptr, %struct.FxuListLit, ptr, ptr, ptr }

; Function Attrs: nounwind uwtable
define void @Fxu_PairAdd(ptr noundef %0) #0 {
  %2 = alloca ptr, align 8
  %3 = alloca ptr, align 8
  store ptr %0, ptr %2, align 8, !tbaa !29
  call void @llvm.lifetime.start.p0(i64 8, ptr %3) #6
  %4 = load ptr, ptr %2, align 8, !tbaa !29
  %5 = getelementptr inbounds nuw %struct.FxuPair, ptr %4, i32 0, i32 4
  %6 = load ptr, ptr %5, align 8, !tbaa !35
  %7 = getelementptr inbounds nuw %struct.FxuCube, ptr %6, i32 0, i32 2
  %8 = load ptr, ptr %7, align 8, !tbaa !45
  store ptr %8, ptr %3, align 8, !tbaa !37
  %9 = load ptr, ptr %2, align 8, !tbaa !29
  %10 = load ptr, ptr %3, align 8, !tbaa !37
  %11 = getelementptr inbounds nuw %struct.FxuVar, ptr %10, i32 0, i32 3
  %12 = load ptr, ptr %11, align 8, !tbaa !41
  %13 = load ptr, ptr %2, align 8, !tbaa !29
  %14 = getelementptr inbounds nuw %struct.FxuPair, ptr %13, i32 0, i32 6
  %15 = load i32, ptr %14, align 8, !tbaa !47
  %16 = sext i32 %15 to i64
  %17 = getelementptr inbounds ptr, ptr %12, i64 %16
  %18 = load ptr, ptr %17, align 8, !tbaa !42
  %19 = load ptr, ptr %2, align 8, !tbaa !29
  %20 = getelementptr inbounds nuw %struct.FxuPair, ptr %19, i32 0, i32 7
  %21 = load i32, ptr %20, align 4, !tbaa !48
  %22 = sext i32 %21 to i64
  %23 = getelementptr inbounds ptr, ptr %18, i64 %22
  store ptr %9, ptr %23, align 8, !tbaa !29
  %24 = load ptr, ptr %2, align 8, !tbaa !29
  %25 = load ptr, ptr %3, align 8, !tbaa !37
  %26 = getelementptr inbounds nuw %struct.FxuVar, ptr %25, i32 0, i32 3
  %27 = load ptr, ptr %26, align 8, !tbaa !41
  %28 = load ptr, ptr %2, align 8, !tbaa !29
  %29 = getelementptr inbounds nuw %struct.FxuPair, ptr %28, i32 0, i32 7
  %30 = load i32, ptr %29, align 4, !tbaa !48
  %31 = sext i32 %30 to i64
  %32 = getelementptr inbounds ptr, ptr %27, i64 %31
  %33 = load ptr, ptr %32, align 8, !tbaa !42
  %34 = load ptr, ptr %2, align 8, !tbaa !29
  %35 = getelementptr inbounds nuw %struct.FxuPair, ptr %34, i32 0, i32 6
  %36 = load i32, ptr %35, align 8, !tbaa !47
  %37 = sext i32 %36 to i64
  %38 = getelementptr inbounds ptr, ptr %33, i64 %37
  store ptr %24, ptr %38, align 8, !tbaa !29
  call void @llvm.lifetime.end.p0(i64 8, ptr %3) #6
  ret void
}