; Function Attrs: mustprogress nofree norecurse nosync nounwind willreturn memory(readwrite, inaccessiblemem: none) uwtable
define void @Fxu_PairAdd(ptr noundef %0) local_unnamed_addr #12 {
  %2 = getelementptr inbounds nuw i8, ptr %0, i64 24
  %3 = load ptr, ptr %2, align 8, !tbaa !27
  %4 = getelementptr inbounds nuw i8, ptr %3, i64 16
  %5 = load ptr, ptr %4, align 8, !tbaa !37
  %6 = getelementptr inbounds nuw i8, ptr %5, i64 16
  %7 = load ptr, ptr %6, align 8, !tbaa !33
  %8 = getelementptr inbounds nuw i8, ptr %0, i64 40
  %9 = load i32, ptr %8, align 8, !tbaa !40
  %10 = sext i32 %9 to i64
  %11 = getelementptr inbounds ptr, ptr %7, i64 %10
  %12 = load ptr, ptr %11, align 8, !tbaa !34
  %13 = getelementptr inbounds nuw i8, ptr %0, i64 44
  %14 = load i32, ptr %13, align 4, !tbaa !41
  %15 = sext i32 %14 to i64
  %16 = getelementptr inbounds ptr, ptr %12, i64 %15
  store ptr %0, ptr %16, align 8, !tbaa !38
  %17 = getelementptr inbounds ptr, ptr %7, i64 %15
  %18 = load ptr, ptr %17, align 8, !tbaa !34
  %19 = getelementptr inbounds ptr, ptr %18, i64 %10
  store ptr %0, ptr %19, align 8, !tbaa !38
  ret void
}